; Function Attrs: nounwind uwtable
define hidden ptr @mpd_calloc(i64 noundef %0, i64 noundef %1) local_unnamed_addr #4 {
  %umul = tail call { i64, i1 } @llvm.umul.with.overflow.i64(i64 %1, i64 %0)
  %3 = extractvalue { i64, i1 } %umul, 1
  br i1 %3, label %7, label %4

4:                                                ; preds = %2
  %5 = load ptr, ptr @mpd_callocfunc, align 8, !tbaa !3
  %6 = tail call ptr %5(i64 noundef %0, i64 noundef %1) #9
  br label %7

7:                                                ; preds = %2, %4
  %.0 = phi ptr [ %6, %4 ], [ null, %2 ]
  ret ptr %.0
}